target datalayout = "e-m:e-p270:32:32-p271:32:32-p272:64:64-i64:64-i128:128-f80:128-n8:16:32:64-S128"
target triple = "x86_64-pc-linux-gnu"

%struct._object = type { %union.anon, ptr }
%union.anon = type { i64 }
%struct.SemLockObject = type { %struct._object, ptr, i64, i32, i32, i32, ptr }

; Function Attrs: nounwind uwtable
define internal ptr @_multiprocessing_SemLock__is_mine_impl(ptr noundef %0) #0 {
  %2 = alloca ptr, align 8
  store ptr %0, ptr %2, align 8, !tbaa !10
  %3 = load ptr, ptr %2, align 8, !tbaa !10
  %4 = getelementptr inbounds nuw %struct.SemLockObject, ptr %3, i32 0, i32 3
  %5 = load i32, ptr %4, align 8, !tbaa !33
  %6 = icmp sgt i32 %5, 0
  br i1 %6, label %7, label %13

7:                                                ; preds = %1
  %8 = call i64 @PyThread_get_thread_ident()
  %9 = load ptr, ptr %2, align 8, !tbaa !10
  %10 = getelementptr inbounds nuw %struct.SemLockObject, ptr %9, i32 0, i32 2
  %11 = load i64, ptr %10, align 8, !tbaa !34
  %12 = icmp eq i64 %8, %11
  br label %13

13:                                               ; preds = %7, %1
  %14 = phi i1 [ false, %1 ], [ %12, %7 ]
  %15 = zext i1 %14 to i32
  %16 = sext i32 %15 to i64
  %17 = call ptr @PyBool_FromLong(i64 noundef %16)
  ret ptr %17
}

; Function Attrs: nounwind uwtable
define internal ptr @_multiprocessing_SemLock__is_mine(ptr noundef %0, ptr noundef %1) #0 {
  %3 = alloca ptr, align 8
  %4 = alloca ptr, align 8
  store ptr %0, ptr %3, align 8, !tbaa !8
  store ptr %1, ptr %4, align 8, !tbaa !8
  %5 = load ptr, ptr %3, align 8, !tbaa !8
  %6 = call ptr @_multiprocessing_SemLock__is_mine_impl(ptr noundef %5)
  ret ptr %6
}