; Function Attrs: nounwind uwtable
define internal ptr @_multiprocessing_SemLock__is_mine(ptr noundef readonly captures(none) %0, ptr readnone captures(none) %1) #0 {
  %3 = getelementptr inbounds nuw i8, ptr %0, i64 32
  %4 = load i32, ptr %3, align 8, !tbaa !30
  %5 = icmp sgt i32 %4, 0
  br i1 %5, label %6, label %_multiprocessing_SemLock__is_mine_impl.exit

6:                                                ; preds = %2
  %7 = tail call i64 @PyThread_get_thread_ident() #11
  %8 = getelementptr inbounds nuw i8, ptr %0, i64 24
  %9 = load i64, ptr %8, align 8, !tbaa !31
  %10 = icmp eq i64 %7, %9
  %11 = zext i1 %10 to i64
  br label %_multiprocessing_SemLock__is_mine_impl.exit

_multiprocessing_SemLock__is_mine_impl.exit:      ; preds = %2, %6
  %12 = phi i64 [ 0, %2 ], [ %11, %6 ]
  %13 = tail call ptr @PyBool_FromLong(i64 noundef %12) #11
  ret ptr %13
}